; ModuleID = '49/981.c'
source_filename = "49/981.c"
target datalayout = "e-m:e-p270:32:32-p271:32:32-p272:64:64-i64:64-f80:128-n8:16:32:64-S128"
target triple = "x86_64-pc-linux-gnu"

@flag = dso_local global i32 0, align 4
@s = common dso_local global [1000 x i8] zeroinitializer, align 16
@s1 = common dso_local global [100 x [100 x i8]] zeroinitializer, align 16
@.str = private unnamed_addr constant [4 x i8] c"%s\0A\00", align 1

; Function Attrs: noinline nounwind uwtable
define dso_local i32 @main() #0 {
  %1 = alloca i32, align 4
  %2 = alloca i32, align 4
  %3 = alloca [100 x i32], align 16
  %4 = alloca i32, align 4
  %5 = alloca i32, align 4
  %6 = alloca i32, align 4
  %7 = alloca [100 x i8], align 16
  store i32 0, i32* %1, align 4
  %8 = call i32 (i8*, ...) bitcast (i32 (...)* @gets to i32 (i8*, ...)*)(i8* getelementptr inbounds ([1000 x i8], [1000 x i8]* @s, i64 0, i64 0))
  store i32 1, i32* %2, align 4
  br label %9

9:                                                ; preds = %55, %0
  %10 = load i32, i32* %2, align 4
  %11 = sext i32 %10 to i64
  %12 = getelementptr inbounds [1000 x i8], [1000 x i8]* @s, i64 0, i64 %11
  %13 = load i8, i8* %12, align 1
  %14 = sext i8 %13 to i32
  %15 = icmp ne i32 %14, 0
  br i1 %15, label %16, label %58

16:                                               ; preds = %9
  %17 = load i32, i32* %2, align 4
  %18 = sub nsw i32 %17, 1
  %19 = sext i32 %18 to i64
  %20 = getelementptr inbounds [1000 x i8], [1000 x i8]* @s, i64 0, i64 %19
  %21 = load i8, i8* %20, align 1
  %22 = sext i8 %21 to i32
  %23 = load i32, i32* %2, align 4
  %24 = sext i32 %23 to i64
  %25 = getelementptr inbounds [1000 x i8], [1000 x i8]* @s, i64 0, i64 %24
  %26 = load i8, i8* %25, align 1
  %27 = sext i8 %26 to i32
  %28 = icmp eq i32 %22, %27
  br i1 %28, label %29, label %54

29:                                               ; preds = %16
  %30 = load i32, i32* %2, align 4
  %31 = sub nsw i32 %30, 1
  %32 = sext i32 %31 to i64
  %33 = getelementptr inbounds [1000 x i8], [1000 x i8]* @s, i64 0, i64 %32
  %34 = load i8, i8* %33, align 1
  %35 = load i32, i32* @flag, align 4
  %36 = sext i32 %35 to i64
  %37 = getelementptr inbounds [100 x [100 x i8]], [100 x [100 x i8]]* @s1, i64 0, i64 %36
  %38 = getelementptr inbounds [100 x i8], [100 x i8]* %37, i64 0, i64 0
  store i8 %34, i8* %38, align 4
  %39 = load i32, i32* %2, align 4
  %40 = sext i32 %39 to i64
  %41 = getelementptr inbounds [1000 x i8], [1000 x i8]* @s, i64 0, i64 %40
  %42 = load i8, i8* %41, align 1
  %43 = load i32, i32* @flag, align 4
  %44 = sext i32 %43 to i64
  %45 = getelementptr inbounds [100 x [100 x i8]], [100 x [100 x i8]]* @s1, i64 0, i64 %44
  %46 = getelementptr inbounds [100 x i8], [100 x i8]* %45, i64 0, i64 1
  store i8 %42, i8* %46, align 1
  %47 = load i32, i32* @flag, align 4
  %48 = add nsw i32 %47, 1
  store i32 %48, i32* @flag, align 4
  %49 = load i32, i32* %2, align 4
  %50 = sub nsw i32 %49, 1
  %51 = trunc i32 %50 to i8
  %52 = load i32, i32* %2, align 4
  %53 = trunc i32 %52 to i8
  call void @f(i8 signext %51, i8 signext %53)
  br label %54

54:                                               ; preds = %29, %16
  br label %55

55:                                               ; preds = %54
  %56 = load i32, i32* %2, align 4
  %57 = add nsw i32 %56, 1
  store i32 %57, i32* %2, align 4
  br label %9

58:                                               ; preds = %9
  %59 = load i32, i32* @flag, align 4
  store i32 %59, i32* %4, align 4
  store i32 0, i32* %2, align 4
  br label %60

60:                                               ; preds = %74, %58
  %61 = load i32, i32* %2, align 4
  %62 = load i32, i32* %4, align 4
  %63 = icmp slt i32 %61, %62
  br i1 %63, label %64, label %77

64:                                               ; preds = %60
  %65 = load i32, i32* %2, align 4
  %66 = sext i32 %65 to i64
  %67 = getelementptr inbounds [100 x [100 x i8]], [100 x [100 x i8]]* @s1, i64 0, i64 %66
  %68 = getelementptr inbounds [100 x i8], [100 x i8]* %67, i64 0, i64 0
  %69 = call i64 @strlen(i8* %68) #4
  %70 = trunc i64 %69 to i32
  %71 = load i32, i32* %2, align 4
  %72 = sext i32 %71 to i64
  %73 = getelementptr inbounds [100 x i32], [100 x i32]* %3, i64 0, i64 %72
  store i32 %70, i32* %73, align 4
  br label %74

74:                                               ; preds = %64
  %75 = load i32, i32* %2, align 4
  %76 = add nsw i32 %75, 1
  store i32 %76, i32* %2, align 4
  br label %60

77:                                               ; preds = %60
  store i32 0, i32* %2, align 4
  br label %78

78:                                               ; preds = %146, %77
  %79 = load i32, i32* %2, align 4
  %80 = load i32, i32* %4, align 4
  %81 = icmp slt i32 %79, %80
  br i1 %81, label %82, label %149

82:                                               ; preds = %78
  store i32 1, i32* %5, align 4
  br label %83

83:                                               ; preds = %142, %82
  %84 = load i32, i32* %5, align 4
  %85 = load i32, i32* %4, align 4
  %86 = load i32, i32* %2, align 4
  %87 = sub nsw i32 %85, %86
  %88 = icmp slt i32 %84, %87
  br i1 %88, label %89, label %145

89:                                               ; preds = %83
  %90 = load i32, i32* %5, align 4
  %91 = sub nsw i32 %90, 1
  %92 = sext i32 %91 to i64
  %93 = getelementptr inbounds [100 x i32], [100 x i32]* %3, i64 0, i64 %92
  %94 = load i32, i32* %93, align 4
  %95 = load i32, i32* %5, align 4
  %96 = sext i32 %95 to i64
  %97 = getelementptr inbounds [100 x i32], [100 x i32]* %3, i64 0, i64 %96
  %98 = load i32, i32* %97, align 4
  %99 = icmp sgt i32 %94, %98
  br i1 %99, label %100, label %141

100:                                              ; preds = %89
  %101 = load i32, i32* %5, align 4
  %102 = sub nsw i32 %101, 1
  %103 = sext i32 %102 to i64
  %104 = getelementptr inbounds [100 x i32], [100 x i32]* %3, i64 0, i64 %103
  %105 = load i32, i32* %104, align 4
  store i32 %105, i32* %6, align 4
  %106 = load i32, i32* %5, align 4
  %107 = sext i32 %106 to i64
  %108 = getelementptr inbounds [100 x i32], [100 x i32]* %3, i64 0, i64 %107
  %109 = load i32, i32* %108, align 4
  %110 = load i32, i32* %5, align 4
  %111 = sub nsw i32 %110, 1
  %112 = sext i32 %111 to i64
  %113 = getelementptr inbounds [100 x i32], [100 x i32]* %3, i64 0, i64 %112
  store i32 %109, i32* %113, align 4
  %114 = load i32, i32* %6, align 4
  %115 = load i32, i32* %5, align 4
  %116 = sext i32 %115 to i64
  %117 = getelementptr inbounds [100 x i32], [100 x i32]* %3, i64 0, i64 %116
  store i32 %114, i32* %117, align 4
  %118 = getelementptr inbounds [100 x i8], [100 x i8]* %7, i64 0, i64 0
  %119 = load i32, i32* %5, align 4
  %120 = sub nsw i32 %119, 1
  %121 = sext i32 %120 to i64
  %122 = getelementptr inbounds [100 x [100 x i8]], [100 x [100 x i8]]* @s1, i64 0, i64 %121
  %123 = getelementptr inbounds [100 x i8], [100 x i8]* %122, i64 0, i64 0
  %124 = call i8* @strcpy(i8* %118, i8* %123) #5
  %125 = load i32, i32* %5, align 4
  %126 = sub nsw i32 %125, 1
  %127 = sext i32 %126 to i64
  %128 = getelementptr inbounds [100 x [100 x i8]], [100 x [100 x i8]]* @s1, i64 0, i64 %127
  %129 = getelementptr inbounds [100 x i8], [100 x i8]* %128, i64 0, i64 0
  %130 = load i32, i32* %5, align 4
  %131 = sext i32 %130 to i64
  %132 = getelementptr inbounds [100 x [100 x i8]], [100 x [100 x i8]]* @s1, i64 0, i64 %131
  %133 = getelementptr inbounds [100 x i8], [100 x i8]* %132, i64 0, i64 0
  %134 = call i8* @strcpy(i8* %129, i8* %133) #5
  %135 = load i32, i32* %5, align 4
  %136 = sext i32 %135 to i64
  %137 = getelementptr inbounds [100 x [100 x i8]], [100 x [100 x i8]]* @s1, i64 0, i64 %136
  %138 = getelementptr inbounds [100 x i8], [100 x i8]* %137, i64 0, i64 0
  %139 = getelementptr inbounds [100 x i8], [100 x i8]* %7, i64 0, i64 0
  %140 = call i8* @strcpy(i8* %138, i8* %139) #5
  br label %141

141:                                              ; preds = %100, %89
  br label %142

142:                                              ; preds = %141
  %143 = load i32, i32* %5, align 4
  %144 = add nsw i32 %143, 1
  store i32 %144, i32* %5, align 4
  br label %83

145:                                              ; preds = %83
  br label %146

146:                                              ; preds = %145
  %147 = load i32, i32* %2, align 4
  %148 = add nsw i32 %147, 1
  store i32 %148, i32* %2, align 4
  br label %78

149:                                              ; preds = %78
  store i32 0, i32* %2, align 4
  br label %150

150:                                              ; preds = %160, %149
  %151 = load i32, i32* %2, align 4
  %152 = load i32, i32* %4, align 4
  %153 = icmp slt i32 %151, %152
  br i1 %153, label %154, label %163

154:                                              ; preds = %150
  %155 = load i32, i32* %2, align 4
  %156 = sext i32 %155 to i64
  %157 = getelementptr inbounds [100 x [100 x i8]], [100 x [100 x i8]]* @s1, i64 0, i64 %156
  %158 = getelementptr inbounds [100 x i8], [100 x i8]* %157, i64 0, i64 0
  %159 = call i32 (i8*, ...) @printf(i8* getelementptr inbounds ([4 x i8], [4 x i8]* @.str, i64 0, i64 0), i8* %158)
  br label %160

160:                                              ; preds = %154
  %161 = load i32, i32* %2, align 4
  %162 = add nsw i32 %161, 1
  store i32 %162, i32* %2, align 4
  br label %150

163:                                              ; preds = %150
  %164 = load i32, i32* %1, align 4
  ret i32 %164
}

declare dso_local i32 @gets(...) #1

; Function Attrs: noinline nounwind uwtable
define dso_local void @f(i8 signext %0, i8 signext %1) #0 {
  %3 = alloca i8, align 1
  %4 = alloca i8, align 1
  %5 = alloca i8*, align 8
  %6 = alloca i8*, align 8
  %7 = alloca i32, align 4
  store i8 %0, i8* %3, align 1
  store i8 %1, i8* %4, align 1
  %8 = load i8, i8* %3, align 1
  %9 = sext i8 %8 to i32
  %10 = icmp sge i32 %9, 1
  br i1 %10, label %11, label %77

11:                                               ; preds = %2
  %12 = load i8, i8* %4, align 1
  %13 = sext i8 %12 to i32
  %14 = add nsw i32 %13, 1
  %15 = sext i32 %14 to i64
  %16 = getelementptr inbounds [1000 x i8], [1000 x i8]* @s, i64 0, i64 %15
  %17 = load i8, i8* %16, align 1
  %18 = sext i8 %17 to i32
  %19 = icmp ne i32 %18, 0
  br i1 %19, label %20, label %77

20:                                               ; preds = %11
  %21 = load i8, i8* %3, align 1
  %22 = sext i8 %21 to i32
  %23 = sub nsw i32 %22, 1
  %24 = sext i32 %23 to i64
  %25 = getelementptr inbounds [1000 x i8], [1000 x i8]* @s, i64 0, i64 %24
  %26 = load i8, i8* %25, align 1
  %27 = sext i8 %26 to i32
  %28 = load i8, i8* %4, align 1
  %29 = sext i8 %28 to i32
  %30 = add nsw i32 %29, 1
  %31 = sext i32 %30 to i64
  %32 = getelementptr inbounds [1000 x i8], [1000 x i8]* @s, i64 0, i64 %31
  %33 = load i8, i8* %32, align 1
  %34 = sext i8 %33 to i32
  %35 = icmp eq i32 %27, %34
  br i1 %35, label %36, label %76

36:                                               ; preds = %20
  %37 = load i8, i8* %4, align 1
  %38 = sext i8 %37 to i32
  %39 = add nsw i32 %38, 1
  %40 = sext i32 %39 to i64
  %41 = getelementptr inbounds [1000 x i8], [1000 x i8]* @s, i64 0, i64 %40
  store i8* %41, i8** %5, align 8
  %42 = load i8, i8* %3, align 1
  %43 = sext i8 %42 to i32
  %44 = sub nsw i32 %43, 1
  %45 = sext i32 %44 to i64
  %46 = getelementptr inbounds [1000 x i8], [1000 x i8]* @s, i64 0, i64 %45
  store i8* %46, i8** %6, align 8
  store i32 0, i32* %7, align 4
  br label %47

47:                                               ; preds = %60, %36
  %48 = load i8*, i8** %6, align 8
  %49 = load i8*, i8** %5, align 8
  %50 = icmp ule i8* %48, %49
  br i1 %50, label %51, label %65

51:                                               ; preds = %47
  %52 = load i8*, i8** %6, align 8
  %53 = load i8, i8* %52, align 1
  %54 = load i32, i32* @flag, align 4
  %55 = sext i32 %54 to i64
  %56 = getelementptr inbounds [100 x [100 x i8]], [100 x [100 x i8]]* @s1, i64 0, i64 %55
  %57 = load i32, i32* %7, align 4
  %58 = sext i32 %57 to i64
  %59 = getelementptr inbounds [100 x i8], [100 x i8]* %56, i64 0, i64 %58
  store i8 %53, i8* %59, align 1
  br label %60

60:                                               ; preds = %51
  %61 = load i8*, i8** %6, align 8
  %62 = getelementptr inbounds i8, i8* %61, i32 1
  store i8* %62, i8** %6, align 8
  %63 = load i32, i32* %7, align 4
  %64 = add nsw i32 %63, 1
  store i32 %64, i32* %7, align 4
  br label %47

65:                                               ; preds = %47
  %66 = load i32, i32* @flag, align 4
  %67 = add nsw i32 %66, 1
  store i32 %67, i32* @flag, align 4
  %68 = load i8, i8* %3, align 1
  %69 = sext i8 %68 to i32
  %70 = sub nsw i32 %69, 1
  %71 = trunc i32 %70 to i8
  %72 = load i8, i8* %4, align 1
  %73 = sext i8 %72 to i32
  %74 = add nsw i32 %73, 1
  %75 = trunc i32 %74 to i8
  call void @f(i8 signext %71, i8 signext %75)
  br label %76

76:                                               ; preds = %65, %20
  br label %77

77:                                               ; preds = %76, %11, %2
  ret void
}

; Function Attrs: nounwind readonly
declare dso_local i64 @strlen(i8*) #2

; Function Attrs: nounwind
declare dso_local i8* @strcpy(i8*, i8*) #3

declare dso_local i32 @printf(i8*, ...) #1


!llvm.module.flags = !{!0}
!llvm.ident = !{!1}

!0 = !{i32 1, !"wchar_size", i32 4}
!1 = !{!"clang version 10.0.0-4ubuntu1 "}
